target datalayout = "e-m:e-p270:32:32-p271:32:32-p272:64:64-i64:64-i128:128-f80:128-n8:16:32:64-S128"
target triple = "x86_64-pc-linux-gnu"

%struct._packet_info = type { ptr, ptr, i32, i32, %struct.nstime_t, %struct.nstime_t, %struct.nstime_t, i8, ptr, ptr, ptr, ptr, %struct._address, %struct._address, %struct._address, %struct._address, %struct._address, %struct._address, i32, ptr, i8, [3 x i8], %struct.anon, i32, i32, i32, i32, ptr, i8, ptr, ptr, i16, i16, i32, i32, i16, i32, i32, ptr, ptr, ptr, i8, i8, i16, i16, i16, i32, i16, i16, ptr, ptr, ptr, ptr, ptr, i32, i32 }
%struct.nstime_t = type { i64, i32 }
%struct._address = type { i32, i32, ptr, ptr }
%struct.anon = type { i8, [3 x i8] }

@hf_kafka_error = internal global i32 0, align 4
@hf_kafka_error_message = internal global i32 0, align 4
@hf_kafka_topic_name = internal global i32 0, align 4
@.str.558 = private unnamed_addr constant [6 x i8] c"Topic\00", align 1
@ett_kafka_topic = internal global i32 0, align 4
@.str.628 = private unnamed_addr constant [11 x i8] c"Unknown %d\00", align 1
@.str.642 = private unnamed_addr constant [11 x i8] c" (Name=%s)\00", align 1
@.str.742 = private unnamed_addr constant [7 x i8] c" [%s] \00", align 1

; Function Attrs: null_pointer_is_valid sspstrong uwtable
define internal ptr @kafka_error_to_str(i16 noundef signext %0) #0 {
  %2 = alloca i16, align 2
  store i16 %0, ptr %2, align 2
  %3 = load i16, ptr %2, align 2
  %4 = sext i16 %3 to i32
  %5 = call ptr @val_to_str(i32 noundef %4, ptr noundef @kafka_errors, ptr noundef @.str.628)
  ret ptr %5
}

; Function Attrs: null_pointer_is_valid sspstrong uwtable
define internal i32 @dissect_kafka_error_ret(ptr noundef %0, ptr noundef %1, ptr noundef %2, i32 noundef %3, ptr noundef %4) #0 {
  %6 = alloca ptr, align 8
  %7 = alloca ptr, align 8
  %8 = alloca ptr, align 8
  %9 = alloca i32, align 4
  %10 = alloca ptr, align 8
  %11 = alloca i16, align 2
  store ptr %0, ptr %6, align 8
  store ptr %1, ptr %7, align 8
  store ptr %2, ptr %8, align 8
  store i32 %3, ptr %9, align 4
  store ptr %4, ptr %10, align 8
  call void @llvm.lifetime.start.p0(i64 2, ptr %11) #12
  %12 = load ptr, ptr %6, align 8
  %13 = load i32, ptr %9, align 4
  %14 = call zeroext i16 @tvb_get_ntohs(ptr noundef %12, i32 noundef %13)
  store i16 %14, ptr %11, align 2
  %15 = load ptr, ptr %8, align 8
  %16 = load i32, ptr @hf_kafka_error, align 4
  %17 = load ptr, ptr %6, align 8
  %18 = load i32, ptr %9, align 4
  %19 = call ptr @proto_tree_add_item(ptr noundef %15, i32 noundef %16, ptr noundef %17, i32 noundef %18, i32 noundef 2, i32 noundef 0)
  %20 = load i32, ptr %9, align 4
  %21 = add i32 %20, 2
  store i32 %21, ptr %9, align 4
  %22 = load i16, ptr %11, align 2
  %23 = sext i16 %22 to i32
  %24 = icmp ne i32 %23, 0
  br i1 %24, label %25, label %31

25:                                               ; preds = %5
  %26 = load ptr, ptr %7, align 8
  %27 = getelementptr inbounds nuw %struct._packet_info, ptr %26, i32 0, i32 1
  %28 = load ptr, ptr %27, align 8
  %29 = load i16, ptr %11, align 2
  %30 = call ptr @kafka_error_to_str(i16 noundef signext %29)
  call void (ptr, i32, ptr, ...) @col_append_fstr(ptr noundef %28, i32 noundef 25, ptr noundef @.str.742, ptr noundef %30)
  br label %31

31:                                               ; preds = %25, %5
  %32 = load ptr, ptr %10, align 8
  %33 = icmp ne ptr %32, null
  br i1 %33, label %34, label %37

34:                                               ; preds = %31
  %35 = load i16, ptr %11, align 2
  %36 = load ptr, ptr %10, align 8
  store i16 %35, ptr %36, align 2
  br label %37

37:                                               ; preds = %34, %31
  %38 = load i32, ptr %9, align 4
  call void @llvm.lifetime.end.p0(i64 2, ptr %11) #12
  ret i32 %38
}

; Function Attrs: null_pointer_is_valid sspstrong uwtable
define internal i32 @dissect_kafka_error(ptr noundef %0, ptr noundef %1, ptr noundef %2, i32 noundef %3) #0 {
  %5 = alloca ptr, align 8
  %6 = alloca ptr, align 8
  %7 = alloca ptr, align 8
  %8 = alloca i32, align 4
  store ptr %0, ptr %5, align 8
  store ptr %1, ptr %6, align 8
  store ptr %2, ptr %7, align 8
  store i32 %3, ptr %8, align 4
  %9 = load ptr, ptr %5, align 8
  %10 = load ptr, ptr %6, align 8
  %11 = load ptr, ptr %7, align 8
  %12 = load i32, ptr %8, align 4
  %13 = call i32 @dissect_kafka_error_ret(ptr noundef %9, ptr noundef %10, ptr noundef %11, i32 noundef %12, ptr noundef null)
  ret i32 %13
}

; Function Attrs: null_pointer_is_valid sspstrong uwtable
define internal i32 @dissect_kafka_create_partitions_response_topic(ptr noundef %0, ptr noundef %1, ptr noundef %2, i32 noundef %3, i16 noundef signext %4) #0 {
  %6 = alloca ptr, align 8
  %7 = alloca ptr, align 8
  %8 = alloca ptr, align 8
  %9 = alloca i32, align 4
  %10 = alloca i16, align 2
  %11 = alloca ptr, align 8
  %12 = alloca ptr, align 8
  %13 = alloca i32, align 4
  %14 = alloca i32, align 4
  store ptr %0, ptr %6, align 8
  store ptr %1, ptr %7, align 8
  store ptr %2, ptr %8, align 8
  store i32 %3, ptr %9, align 4
  store i16 %4, ptr %10, align 2
  call void @llvm.lifetime.start.p0(i64 8, ptr %11) #12
  call void @llvm.lifetime.start.p0(i64 8, ptr %12) #12
  call void @llvm.lifetime.start.p0(i64 4, ptr %13) #12
  call void @llvm.lifetime.start.p0(i64 4, ptr %14) #12
  %15 = load ptr, ptr %8, align 8
  %16 = load ptr, ptr %6, align 8
  %17 = load i32, ptr %9, align 4
  %18 = load i32, ptr @ett_kafka_topic, align 4
  %19 = call ptr @proto_tree_add_subtree(ptr noundef %15, ptr noundef %16, i32 noundef %17, i32 noundef -1, i32 noundef %18, ptr noundef %11, ptr noundef @.str.558)
  store ptr %19, ptr %12, align 8
  %20 = load ptr, ptr %12, align 8
  %21 = load i32, ptr @hf_kafka_topic_name, align 4
  %22 = load ptr, ptr %6, align 8
  %23 = load ptr, ptr %7, align 8
  %24 = load i32, ptr %9, align 4
  %25 = load i16, ptr %10, align 2
  %26 = sext i16 %25 to i32
  %27 = icmp sge i32 %26, 2
  %28 = zext i1 %27 to i32
  %29 = call i32 @dissect_kafka_string(ptr noundef %20, i32 noundef %21, ptr noundef %22, ptr noundef %23, i32 noundef %24, i32 noundef %28, ptr noundef %13, ptr noundef %14)
  store i32 %29, ptr %9, align 4
  %30 = load ptr, ptr %6, align 8
  %31 = load ptr, ptr %7, align 8
  %32 = load ptr, ptr %12, align 8
  %33 = load i32, ptr %9, align 4
  %34 = call i32 @dissect_kafka_error(ptr noundef %30, ptr noundef %31, ptr noundef %32, i32 noundef %33)
  store i32 %34, ptr %9, align 4
  %35 = load ptr, ptr %12, align 8
  %36 = load i32, ptr @hf_kafka_error_message, align 4
  %37 = load ptr, ptr %6, align 8
  %38 = load ptr, ptr %7, align 8
  %39 = load i32, ptr %9, align 4
  %40 = load i16, ptr %10, align 2
  %41 = sext i16 %40 to i32
  %42 = icmp sge i32 %41, 2
  %43 = zext i1 %42 to i32
  %44 = call i32 @dissect_kafka_string(ptr noundef %35, i32 noundef %36, ptr noundef %37, ptr noundef %38, i32 noundef %39, i32 noundef %43, ptr noundef null, ptr noundef null)
  store i32 %44, ptr %9, align 4
  %45 = load i16, ptr %10, align 2
  %46 = sext i16 %45 to i32
  %47 = icmp sge i32 %46, 2
  br i1 %47, label %48, label %54

48:                                               ; preds = %5
  %49 = load ptr, ptr %6, align 8
  %50 = load ptr, ptr %7, align 8
  %51 = load ptr, ptr %12, align 8
  %52 = load i32, ptr %9, align 4
  %53 = call i32 @dissect_kafka_tagged_fields(ptr noundef %49, ptr noundef %50, ptr noundef %51, i32 noundef %52, i16 noundef signext 0)
  store i32 %53, ptr %9, align 4
  br label %54

54:                                               ; preds = %48, %5
  %55 = load ptr, ptr %11, align 8
  %56 = load ptr, ptr %6, align 8
  %57 = load i32, ptr %9, align 4
  call void @proto_item_set_end(ptr noundef %55, ptr noundef %56, i32 noundef %57)
  %58 = load ptr, ptr %11, align 8
  %59 = load ptr, ptr %7, align 8
  %60 = getelementptr inbounds nuw %struct._packet_info, ptr %59, i32 0, i32 51
  %61 = load ptr, ptr %60, align 8
  %62 = load ptr, ptr %6, align 8
  %63 = load i32, ptr %13, align 4
  %64 = load i32, ptr %14, align 4
  %65 = call ptr @tvb_get_string_enc(ptr noundef %61, ptr noundef %62, i32 noundef %63, i32 noundef %64, i32 noundef 2)
  call void (ptr, ptr, ...) @proto_item_append_text(ptr noundef %58, ptr noundef @.str.642, ptr noundef %65)
  %66 = load i32, ptr %9, align 4
  call void @llvm.lifetime.end.p0(i64 4, ptr %14) #12
  call void @llvm.lifetime.end.p0(i64 4, ptr %13) #12
  call void @llvm.lifetime.end.p0(i64 8, ptr %12) #12
  call void @llvm.lifetime.end.p0(i64 8, ptr %11) #12
  ret i32 %66
}