; Function Attrs: null_pointer_is_valid sspstrong uwtable
define internal noundef i32 @dissect_kafka_create_partitions_response_topic(ptr noundef %0, ptr noundef %1, ptr noundef %2, i32 noundef %3, i16 noundef signext %4) #0 {
  %6 = alloca ptr, align 8
  %7 = alloca i32, align 4
  %8 = alloca i32, align 4
  call void @llvm.lifetime.start.p0(i64 8, ptr nonnull %6) #9
  call void @llvm.lifetime.start.p0(i64 4, ptr nonnull %7) #9
  call void @llvm.lifetime.start.p0(i64 4, ptr nonnull %8) #9
  %9 = load i32, ptr @ett_kafka_topic, align 4
  %10 = call ptr @proto_tree_add_subtree(ptr noundef %2, ptr noundef %0, i32 noundef %3, i32 noundef -1, i32 noundef %9, ptr noundef nonnull %6, ptr noundef nonnull @.str.558)
  %11 = load i32, ptr @hf_kafka_topic_name, align 4
  %12 = icmp sgt i16 %4, 1
  %13 = zext i1 %12 to i32
  %14 = call fastcc i32 @dissect_kafka_string(ptr noundef %10, i32 noundef %11, ptr noundef %0, ptr noundef %1, i32 noundef %3, i32 noundef %13, ptr noundef nonnull %7, ptr noundef nonnull %8)
  %15 = call zeroext i16 @tvb_get_ntohs(ptr noundef %0, i32 noundef %14)
  %16 = load i32, ptr @hf_kafka_error, align 4
  %17 = call ptr @proto_tree_add_item(ptr noundef %10, i32 noundef %16, ptr noundef %0, i32 noundef %14, i32 noundef 2, i32 noundef 0)
  %.not.i.i = icmp eq i16 %15, 0
  br i1 %.not.i.i, label %dissect_kafka_error.exit, label %18

18:                                               ; preds = %5
  %19 = getelementptr inbounds nuw i8, ptr %1, i64 8
  %20 = load ptr, ptr %19, align 8
  %21 = sext i16 %15 to i32
  %22 = call ptr @val_to_str(i32 noundef %21, ptr noundef nonnull @kafka_errors, ptr noundef nonnull @.str.628)
  call void (ptr, i32, ptr, ...) @col_append_fstr(ptr noundef %20, i32 noundef 25, ptr noundef nonnull @.str.742, ptr noundef %22)
  br label %dissect_kafka_error.exit

dissect_kafka_error.exit:                         ; preds = %5, %18
  %23 = add i32 %14, 2
  %24 = load i32, ptr @hf_kafka_error_message, align 4
  %25 = call fastcc i32 @dissect_kafka_string(ptr noundef %10, i32 noundef %24, ptr noundef %0, ptr noundef %1, i32 noundef %23, i32 noundef %13, ptr noundef null, ptr noundef null)
  br i1 %12, label %26, label %28

26:                                               ; preds = %dissect_kafka_error.exit
  %27 = call fastcc i32 @dissect_kafka_tagged_fields(ptr noundef %0, ptr noundef %1, ptr noundef %10, i32 noundef %25)
  br label %28

28:                                               ; preds = %26, %dissect_kafka_error.exit
  %.0 = phi i32 [ %27, %26 ], [ %25, %dissect_kafka_error.exit ]
  %29 = load ptr, ptr %6, align 8
  call void @proto_item_set_end(ptr noundef %29, ptr noundef %0, i32 noundef %.0)
  %30 = load ptr, ptr %6, align 8
  %31 = getelementptr inbounds nuw i8, ptr %1, i64 408
  %32 = load ptr, ptr %31, align 8
  %33 = load i32, ptr %7, align 4
  %34 = load i32, ptr %8, align 4
  %35 = call ptr @tvb_get_string_enc(ptr noundef %32, ptr noundef %0, i32 noundef %33, i32 noundef %34, i32 noundef 2)
  call void (ptr, ptr, ...) @proto_item_append_text(ptr noundef %30, ptr noundef nonnull @.str.642, ptr noundef %35)
  call void @llvm.lifetime.end.p0(i64 4, ptr nonnull %8) #9
  call void @llvm.lifetime.end.p0(i64 4, ptr nonnull %7) #9
  call void @llvm.lifetime.end.p0(i64 8, ptr nonnull %6) #9
  ret i32 %.0
}